; Function Attrs: mustprogress uwtable
define hidden void @_ZN4cvc58internal6theory5arith6linear22ArithCongruenceManager8pushBackENS0_12NodeTemplateILb0EEE(ptr noundef nonnull align 8 dereferenceable(680) %0, ptr noundef readonly captures(none) %1) local_unnamed_addr #3 align 2 personality ptr @__gxx_personality_v0 {
  %3 = alloca %"class.cvc5::internal::NodeTemplate.0", align 8
  %4 = alloca i64, align 8
  %5 = alloca %"class.cvc5::internal::NodeTemplate.0", align 8
  %6 = getelementptr inbounds nuw i8, ptr %0, i64 440
  call void @llvm.lifetime.start.p0(i64 8, ptr nonnull %3) #24
  %7 = load ptr, ptr %1, align 8, !tbaa !7
  store ptr %7, ptr %3, align 8, !tbaa !11
  %8 = load i64, ptr %7, align 8
  %9 = lshr i64 %8, 40
  %10 = trunc nuw nsw i64 %9 to i32
  %11 = and i32 %10, 1048575
  %12 = icmp samesign ult i32 %11, 1048574
  br i1 %12, label %13, label %18, !prof !14

13:                                               ; preds = %2
  %14 = add i64 %8, 1099511627776
  %15 = and i64 %14, 1152920405095219200
  %16 = and i64 %8, -1152920405095219201
  %17 = or disjoint i64 %15, %16
  store i64 %17, ptr %7, align 8
  br label %_ZN4cvc58internal12NodeTemplateILb1EEC2ERKNS1_ILb0EEE.exit

18:                                               ; preds = %2
  %19 = icmp eq i32 %11, 1048574
  br i1 %19, label %20, label %_ZN4cvc58internal12NodeTemplateILb1EEC2ERKNS1_ILb0EEE.exit, !prof !13

20:                                               ; preds = %18
  %21 = or i64 %8, 1152920405095219200
  store i64 %21, ptr %7, align 8
  tail call void @_ZN4cvc58internal4expr9NodeValue20markRefCountMaxedOutEv(ptr noundef nonnull align 8 dereferenceable(24) %7)
  br label %_ZN4cvc58internal12NodeTemplateILb1EEC2ERKNS1_ILb0EEE.exit

_ZN4cvc58internal12NodeTemplateILb1EEC2ERKNS1_ILb0EEE.exit: ; preds = %13, %18, %20
  call void @llvm.lifetime.start.p0(i64 8, ptr nonnull %4) #24
  %22 = getelementptr inbounds nuw i8, ptr %0, i64 312
  %23 = getelementptr inbounds nuw i8, ptr %0, i64 352
  %24 = getelementptr inbounds nuw i8, ptr %0, i64 360
  %25 = load ptr, ptr %24, align 8, !tbaa !19
  %26 = load ptr, ptr %23, align 8, !tbaa !15
  %27 = ptrtoint ptr %25 to i64
  %28 = ptrtoint ptr %26 to i64
  %29 = sub i64 %27, %28
  %30 = ashr exact i64 %29, 3
  store i64 %30, ptr %4, align 8, !tbaa !116
  %31 = invoke noundef zeroext i1 @_ZN4cvc57context9CDHashMapINS_8internal12NodeTemplateILb1EEEmSt4hashIS4_EE6insertERKS4_RKm(ptr noundef nonnull align 8 dereferenceable(112) %6, ptr noundef nonnull align 8 dereferenceable(8) %3, ptr noundef nonnull align 8 dereferenceable(8) %4)
          to label %32 unwind label %78

32:                                               ; preds = %_ZN4cvc58internal12NodeTemplateILb1EEC2ERKNS1_ILb0EEE.exit
  call void @llvm.lifetime.end.p0(i64 8, ptr nonnull %4) #24
  %33 = load ptr, ptr %3, align 8, !tbaa !11
  %34 = load i64, ptr %33, align 8
  %35 = and i64 %34, 1152920405095219200
  %.not.i.i = icmp eq i64 %35, 1152920405095219200
  br i1 %.not.i.i, label %_ZN4cvc58internal12NodeTemplateILb1EED2Ev.exit, label %36, !prof !13

36:                                               ; preds = %32
  %37 = add i64 %34, 1152920405095219200
  %38 = and i64 %37, 1152920405095219200
  %39 = and i64 %34, -1152920405095219201
  %40 = or disjoint i64 %38, %39
  store i64 %40, ptr %33, align 8
  %41 = icmp eq i64 %38, 0
  br i1 %41, label %42, label %_ZN4cvc58internal12NodeTemplateILb1EED2Ev.exit, !prof !13

42:                                               ; preds = %36
  invoke void @_ZN4cvc58internal4expr9NodeValue15markForDeletionEv(ptr noundef nonnull align 8 dereferenceable(24) %33)
          to label %_ZN4cvc58internal12NodeTemplateILb1EED2Ev.exit unwind label %43

43:                                               ; preds = %42
  %44 = landingpad { ptr, i32 }
          catch ptr null
  %45 = extractvalue { ptr, i32 } %44, 0
  call void @__clang_call_terminate(ptr %45) #25
  unreachable

_ZN4cvc58internal12NodeTemplateILb1EED2Ev.exit:   ; preds = %32, %36, %42
  call void @llvm.lifetime.end.p0(i64 8, ptr nonnull %3) #24
  call void @llvm.lifetime.start.p0(i64 8, ptr nonnull %5) #24
  %46 = load ptr, ptr %1, align 8, !tbaa !7
  store ptr %46, ptr %5, align 8, !tbaa !11
  %47 = load i64, ptr %46, align 8
  %48 = lshr i64 %47, 40
  %49 = trunc nuw nsw i64 %48 to i32
  %50 = and i32 %49, 1048575
  %51 = icmp samesign ult i32 %50, 1048574
  br i1 %51, label %52, label %57, !prof !14

52:                                               ; preds = %_ZN4cvc58internal12NodeTemplateILb1EED2Ev.exit
  %53 = add i64 %47, 1099511627776
  %54 = and i64 %53, 1152920405095219200
  %55 = and i64 %47, -1152920405095219201
  %56 = or disjoint i64 %54, %55
  store i64 %56, ptr %46, align 8
  br label %_ZN4cvc58internal12NodeTemplateILb1EEC2ERKNS1_ILb0EEE.exit4

57:                                               ; preds = %_ZN4cvc58internal12NodeTemplateILb1EED2Ev.exit
  %58 = icmp eq i32 %50, 1048574
  br i1 %58, label %59, label %_ZN4cvc58internal12NodeTemplateILb1EEC2ERKNS1_ILb0EEE.exit4, !prof !13

59:                                               ; preds = %57
  %60 = or i64 %47, 1152920405095219200
  store i64 %60, ptr %46, align 8
  call void @_ZN4cvc58internal4expr9NodeValue20markRefCountMaxedOutEv(ptr noundef nonnull align 8 dereferenceable(24) %46)
  br label %_ZN4cvc58internal12NodeTemplateILb1EEC2ERKNS1_ILb0EEE.exit4

_ZN4cvc58internal12NodeTemplateILb1EEC2ERKNS1_ILb0EEE.exit4: ; preds = %52, %57, %59
  %61 = invoke noundef i64 @_ZN4cvc57context12CDTrailQueueINS_8internal12NodeTemplateILb1EEEE7enqueueERKS4_(ptr noundef nonnull align 8 dereferenceable(128) %22, ptr noundef nonnull align 8 dereferenceable(8) %5)
          to label %62 unwind label %80

62:                                               ; preds = %_ZN4cvc58internal12NodeTemplateILb1EEC2ERKNS1_ILb0EEE.exit4
  %63 = load ptr, ptr %5, align 8, !tbaa !11
  %64 = load i64, ptr %63, align 8
  %65 = and i64 %64, 1152920405095219200
  %.not.i.i5 = icmp eq i64 %65, 1152920405095219200
  br i1 %.not.i.i5, label %_ZN4cvc58internal12NodeTemplateILb1EED2Ev.exit6, label %66, !prof !13

66:                                               ; preds = %62
  %67 = add i64 %64, 1152920405095219200
  %68 = and i64 %67, 1152920405095219200
  %69 = and i64 %64, -1152920405095219201
  %70 = or disjoint i64 %68, %69
  store i64 %70, ptr %63, align 8
  %71 = icmp eq i64 %68, 0
  br i1 %71, label %72, label %_ZN4cvc58internal12NodeTemplateILb1EED2Ev.exit6, !prof !13

72:                                               ; preds = %66
  invoke void @_ZN4cvc58internal4expr9NodeValue15markForDeletionEv(ptr noundef nonnull align 8 dereferenceable(24) %63)
          to label %_ZN4cvc58internal12NodeTemplateILb1EED2Ev.exit6 unwind label %73

73:                                               ; preds = %72
  %74 = landingpad { ptr, i32 }
          catch ptr null
  %75 = extractvalue { ptr, i32 } %74, 0
  call void @__clang_call_terminate(ptr %75) #25
  unreachable

_ZN4cvc58internal12NodeTemplateILb1EED2Ev.exit6:  ; preds = %62, %66, %72
  call void @llvm.lifetime.end.p0(i64 8, ptr nonnull %5) #24
  %76 = getelementptr inbounds nuw i8, ptr %0, i64 656
  %77 = call noundef nonnull align 8 dereferenceable(8) ptr @_ZN4cvc58internal7IntStatppEv(ptr noundef nonnull align 8 dereferenceable(8) %76)
  ret void

78:                                               ; preds = %_ZN4cvc58internal12NodeTemplateILb1EEC2ERKNS1_ILb0EEE.exit
  %79 = landingpad { ptr, i32 }
          cleanup
  call void @llvm.lifetime.end.p0(i64 8, ptr nonnull %4) #24
  call void @_ZN4cvc58internal12NodeTemplateILb1EED2Ev(ptr noundef nonnull align 8 dereferenceable(8) %3) #24
  call void @llvm.lifetime.end.p0(i64 8, ptr nonnull %3) #24
  br label %82

80:                                               ; preds = %_ZN4cvc58internal12NodeTemplateILb1EEC2ERKNS1_ILb0EEE.exit4
  %81 = landingpad { ptr, i32 }
          cleanup
  call void @_ZN4cvc58internal12NodeTemplateILb1EED2Ev(ptr noundef nonnull align 8 dereferenceable(8) %5) #24
  call void @llvm.lifetime.end.p0(i64 8, ptr nonnull %5) #24
  br label %82

82:                                               ; preds = %80, %78
  %.pn = phi { ptr, i32 } [ %81, %80 ], [ %79, %78 ]
  resume { ptr, i32 } %.pn
}